target datalayout = "e-m:e-p270:32:32-p271:32:32-p272:64:64-i64:64-i128:128-f80:128-n8:16:32:64-S128"
target triple = "x86_64-pc-linux-gnu"

%struct.strbuf = type { i64, i64, ptr }

@the_repository = external global ptr, align 8
@__const.remove_redundant_pack.buf = private unnamed_addr constant %struct.strbuf { i64 0, i64 0, ptr @strbuf_slopbuf }, align 8
@.str.173 = private unnamed_addr constant [8 x i8] c"%s.pack\00", align 1
@.str.174 = private unnamed_addr constant [4 x i8] c"%s/\00", align 1

; Function Attrs: nounwind uwtable
define internal void @remove_redundant_pack(ptr noundef %0, ptr noundef %1) #0 {
  %3 = alloca ptr, align 8
  %4 = alloca ptr, align 8
  %5 = alloca %struct.strbuf, align 8
  %6 = alloca ptr, align 8
  store ptr %0, ptr %3, align 8, !tbaa !11
  store ptr %1, ptr %4, align 8, !tbaa !11
  call void @llvm.lifetime.start.p0(i64 24, ptr %5) #10
  call void @llvm.memcpy.p0.p0.i64(ptr align 8 %5, ptr align 8 @__const.remove_redundant_pack.buf, i64 24, i1 false)
  call void @llvm.lifetime.start.p0(i64 8, ptr %6) #10
  %7 = load ptr, ptr @the_repository, align 8, !tbaa !13
  %8 = call ptr @get_local_multi_pack_index(ptr noundef %7)
  store ptr %8, ptr %6, align 8, !tbaa !183
  %9 = load ptr, ptr %4, align 8, !tbaa !11
  call void (ptr, ptr, ...) @strbuf_addf(ptr noundef %5, ptr noundef @.str.173, ptr noundef %9)
  %10 = load ptr, ptr %6, align 8, !tbaa !183
  %11 = icmp ne ptr %10, null
  br i1 %11, label %12, label %20

12:                                               ; preds = %2
  %13 = load ptr, ptr %6, align 8, !tbaa !183
  %14 = getelementptr inbounds nuw %struct.strbuf, ptr %5, i32 0, i32 2
  %15 = load ptr, ptr %14, align 8, !tbaa !40
  %16 = call i32 @midx_contains_pack(ptr noundef %13, ptr noundef %15)
  %17 = icmp ne i32 %16, 0
  br i1 %17, label %18, label %20

18:                                               ; preds = %12
  %19 = load ptr, ptr @the_repository, align 8, !tbaa !13
  call void @clear_midx_file(ptr noundef %19)
  br label %20

20:                                               ; preds = %18, %12, %2
  %21 = load ptr, ptr %3, align 8, !tbaa !11
  call void (ptr, i64, ptr, ...) @strbuf_insertf(ptr noundef %5, i64 noundef 0, ptr noundef @.str.174, ptr noundef %21)
  %22 = getelementptr inbounds nuw %struct.strbuf, ptr %5, i32 0, i32 2
  %23 = load ptr, ptr %22, align 8, !tbaa !40
  call void @unlink_pack_path(ptr noundef %23, i32 noundef 1)
  call void @strbuf_release(ptr noundef %5)
  call void @llvm.lifetime.end.p0(i64 8, ptr %6) #10
  call void @llvm.lifetime.end.p0(i64 24, ptr %5) #10
  ret void
}