; Function Attrs: nounwind uwtable
define internal fastcc void @remove_redundant_pack(ptr noundef %0, ptr noundef %1) unnamed_addr #0 {
  %3 = alloca %struct.strbuf, align 8
  call void @llvm.lifetime.start.p0(i64 24, ptr nonnull %3) #16
  call void @llvm.memcpy.p0.p0.i64(ptr noundef nonnull align 8 dereferenceable(24) %3, ptr noundef nonnull align 8 dereferenceable(24) @__const.geometry_remove_redundant_packs.buf, i64 24, i1 false)
  %4 = load ptr, ptr @the_repository, align 8, !tbaa !22
  %5 = tail call ptr @get_local_multi_pack_index(ptr noundef %4) #16
  call void (ptr, ptr, ...) @strbuf_addf(ptr noundef nonnull %3, ptr noundef nonnull @.str.173, ptr noundef %1) #16
  %.not = icmp eq ptr %5, null
  br i1 %.not, label %12, label %6

6:                                                ; preds = %2
  %7 = getelementptr inbounds nuw i8, ptr %3, i64 16
  %8 = load ptr, ptr %7, align 8, !tbaa !32
  %9 = call i32 @midx_contains_pack(ptr noundef nonnull %5, ptr noundef %8) #16
  %.not4 = icmp eq i32 %9, 0
  br i1 %.not4, label %12, label %10

10:                                               ; preds = %6
  %11 = load ptr, ptr @the_repository, align 8, !tbaa !22
  call void @clear_midx_file(ptr noundef %11) #16
  br label %12

12:                                               ; preds = %10, %6, %2
  call void (ptr, i64, ptr, ...) @strbuf_insertf(ptr noundef nonnull %3, i64 noundef 0, ptr noundef nonnull @.str.174, ptr noundef %0) #16
  %13 = getelementptr inbounds nuw i8, ptr %3, i64 16
  %14 = load ptr, ptr %13, align 8, !tbaa !32
  call void @unlink_pack_path(ptr noundef %14, i32 noundef 1) #16
  call void @strbuf_release(ptr noundef nonnull %3) #16
  call void @llvm.lifetime.end.p0(i64 24, ptr nonnull %3) #16
  ret void
}